; Function Attrs: mustprogress norecurse uwtable
define dso_local noundef i32 @main(i32 noundef %0, ptr noundef %1) local_unnamed_addr #5 {
  %3 = alloca i32, align 4
  store i32 %0, ptr %3, align 4, !tbaa !36
  %4 = load ptr, ptr %1, align 8, !tbaa !41
  tail call void @_ZN4absl20InitializeSymbolizerEPKc(ptr noundef %4)
  call void @_ZN7testing14InitGoogleTestEPiPPc(ptr noundef nonnull %3, ptr noundef nonnull %1)
  %5 = call noundef ptr @_ZN7testing8UnitTest11GetInstanceEv()
  %6 = call noundef i32 @_ZN7testing8UnitTest3RunEv(ptr noundef nonnull align 8 dereferenceable(72) %5)
  ret i32 %6
}